target datalayout = "e-m:e-p270:32:32-p271:32:32-p272:64:64-i64:64-i128:128-f80:128-n8:16:32:64-S128"
target triple = "x86_64-pc-linux-gnu"

; Function Attrs: nounwind sspstrong uwtable
define internal i32 @bary_2comp(ptr noundef %0, i64 noundef %1) #0 {
  %3 = alloca i32, align 4
  %4 = alloca ptr, align 8
  %5 = alloca i64, align 8
  %6 = alloca i64, align 8
  %7 = alloca i32, align 4
  store ptr %0, ptr %4, align 8, !tbaa !24
  store i64 %1, ptr %5, align 8, !tbaa !7
  call void @llvm.lifetime.start.p0(i64 8, ptr %6) #24
  store i64 0, ptr %6, align 8, !tbaa !7
  br label %8

8:                                                ; preds = %20, %2
  %9 = load i64, ptr %6, align 8, !tbaa !7
  %10 = load i64, ptr %5, align 8, !tbaa !7
  %11 = icmp ult i64 %9, %10
  br i1 %11, label %12, label %23

12:                                               ; preds = %8
  %13 = load ptr, ptr %4, align 8, !tbaa !24
  %14 = load i64, ptr %6, align 8, !tbaa !7
  %15 = getelementptr i32, ptr %13, i64 %14
  %16 = load i32, ptr %15, align 4, !tbaa !19
  %17 = icmp ne i32 %16, 0
  br i1 %17, label %18, label %19

18:                                               ; preds = %12
  br label %24

19:                                               ; preds = %12
  br label %20

20:                                               ; preds = %19
  %21 = load i64, ptr %6, align 8, !tbaa !7
  %22 = add i64 %21, 1
  store i64 %22, ptr %6, align 8, !tbaa !7
  br label %8, !llvm.loop !228

23:                                               ; preds = %8
  store i32 1, ptr %3, align 4
  store i32 1, ptr %7, align 4
  br label %55

24:                                               ; preds = %18
  %25 = load ptr, ptr %4, align 8, !tbaa !24
  %26 = load i64, ptr %6, align 8, !tbaa !7
  %27 = getelementptr i32, ptr %25, i64 %26
  %28 = load i32, ptr %27, align 4, !tbaa !19
  %29 = xor i32 %28, -1
  %30 = add i32 %29, 1
  %31 = and i32 %30, -1
  %32 = load ptr, ptr %4, align 8, !tbaa !24
  %33 = load i64, ptr %6, align 8, !tbaa !7
  %34 = getelementptr i32, ptr %32, i64 %33
  store i32 %31, ptr %34, align 4, !tbaa !19
  %35 = load i64, ptr %6, align 8, !tbaa !7
  %36 = add i64 %35, 1
  store i64 %36, ptr %6, align 8, !tbaa !7
  br label %37

37:                                               ; preds = %51, %24
  %38 = load i64, ptr %6, align 8, !tbaa !7
  %39 = load i64, ptr %5, align 8, !tbaa !7
  %40 = icmp ult i64 %38, %39
  br i1 %40, label %41, label %54

41:                                               ; preds = %37
  %42 = load ptr, ptr %4, align 8, !tbaa !24
  %43 = load i64, ptr %6, align 8, !tbaa !7
  %44 = getelementptr i32, ptr %42, i64 %43
  %45 = load i32, ptr %44, align 4, !tbaa !19
  %46 = xor i32 %45, -1
  %47 = and i32 %46, -1
  %48 = load ptr, ptr %4, align 8, !tbaa !24
  %49 = load i64, ptr %6, align 8, !tbaa !7
  %50 = getelementptr i32, ptr %48, i64 %49
  store i32 %47, ptr %50, align 4, !tbaa !19
  br label %51

51:                                               ; preds = %41
  %52 = load i64, ptr %6, align 8, !tbaa !7
  %53 = add i64 %52, 1
  store i64 %53, ptr %6, align 8, !tbaa !7
  br label %37, !llvm.loop !229

54:                                               ; preds = %37
  store i32 0, ptr %3, align 4
  store i32 1, ptr %7, align 4
  br label %55

55:                                               ; preds = %54, %23
  call void @llvm.lifetime.end.p0(i64 8, ptr %6) #24
  %56 = load i32, ptr %3, align 4
  ret i32 %56
}