; Function Attrs: nofree norecurse nosync nounwind sspstrong memory(argmem: readwrite) uwtable
define internal fastcc void @bary_2comp(ptr noundef captures(none) %0, i64 noundef %1) unnamed_addr #2 {
  %.not27 = icmp eq i64 %1, 0
  br i1 %.not27, label %.loopexit, label %.lr.ph

.lr.ph:                                           ; preds = %2, %5
  %.023 = phi i64 [ %6, %5 ], [ 0, %2 ]
  %3 = getelementptr i32, ptr %0, i64 %.023
  %4 = load i32, ptr %3, align 4, !tbaa !18
  %.not = icmp eq i32 %4, 0
  br i1 %.not, label %5, label %7

5:                                                ; preds = %.lr.ph
  %6 = add nuw i64 %.023, 1
  %exitcond.not = icmp eq i64 %6, %1
  br i1 %exitcond.not, label %.loopexit, label %.lr.ph, !llvm.loop !48

7:                                                ; preds = %.lr.ph
  %8 = getelementptr i32, ptr %0, i64 %.023
  %9 = sub i32 0, %4
  store i32 %9, ptr %8, align 4, !tbaa !18
  %.124 = add i64 %.023, 1
  %10 = icmp ult i64 %.124, %1
  br i1 %10, label %.lr.ph26, label %.loopexit

.lr.ph26:                                         ; preds = %7, %.lr.ph26
  %.125 = phi i64 [ %.1, %.lr.ph26 ], [ %.124, %7 ]
  %11 = getelementptr i32, ptr %0, i64 %.125
  %12 = load i32, ptr %11, align 4, !tbaa !18
  %13 = xor i32 %12, -1
  store i32 %13, ptr %11, align 4, !tbaa !18
  %.1 = add nuw i64 %.125, 1
  %exitcond31.not = icmp eq i64 %.1, %1
  br i1 %exitcond31.not, label %.loopexit, label %.lr.ph26, !llvm.loop !49

.loopexit:                                        ; preds = %5, %.lr.ph26, %2, %7
  ret void
}